target datalayout = "e-m:e-p270:32:32-p271:32:32-p272:64:64-i64:64-i128:128-f80:128-n8:16:32:64-S128"
target triple = "x86_64-pc-linux-gnu"

%"class.std::__cxx11::basic_string" = type { %"struct.std::__cxx11::basic_string<char>::_Alloc_hider", i64, %union.anon }
%"struct.std::__cxx11::basic_string<char>::_Alloc_hider" = type { ptr }
%union.anon = type { i64, [8 x i8] }

; Function Attrs: mustprogress nounwind uwtable
define available_externally noundef ptr @_ZNKSt7__cxx1112basic_stringIcSt11char_traitsIcESaIcEE7_M_dataEv(ptr noundef nonnull align 8 dereferenceable(32) %0) #3 align 2 {
  %2 = alloca ptr, align 8
  store ptr %0, ptr %2, align 8, !tbaa !29
  %3 = load ptr, ptr %2, align 8
  %4 = getelementptr inbounds nuw %"class.std::__cxx11::basic_string", ptr %3, i32 0, i32 0
  %5 = getelementptr inbounds nuw %"struct.std::__cxx11::basic_string<char>::_Alloc_hider", ptr %4, i32 0, i32 0
  %6 = load ptr, ptr %5, align 8, !tbaa !243
  ret ptr %6
}

; Function Attrs: mustprogress nounwind uwtable
define available_externally noundef nonnull align 1 dereferenceable(1) ptr @_ZNKSt7__cxx1112basic_stringIcSt11char_traitsIcESaIcEEixEm(ptr noundef nonnull align 8 dereferenceable(32) %0, i64 noundef %1) #3 align 2 {
  %3 = alloca ptr, align 8
  %4 = alloca i64, align 8
  store ptr %0, ptr %3, align 8, !tbaa !29
  store i64 %1, ptr %4, align 8, !tbaa !4
  %5 = load ptr, ptr %3, align 8
  br label %6

6:                                                ; preds = %2
  br label %7

7:                                                ; preds = %6
  br label %8

8:                                                ; preds = %7
  %9 = call noundef ptr @_ZNKSt7__cxx1112basic_stringIcSt11char_traitsIcESaIcEE7_M_dataEv(ptr noundef nonnull align 8 dereferenceable(32) %5)
  %10 = load i64, ptr %4, align 8, !tbaa !4
  %11 = getelementptr inbounds nuw i8, ptr %9, i64 %10
  ret ptr %11
}

; Function Attrs: mustprogress nounwind uwtable
define available_externally noundef i64 @_ZNKSt7__cxx1112basic_stringIcSt11char_traitsIcESaIcEE12find_last_ofEcm(ptr noundef nonnull align 8 dereferenceable(32) %0, i8 noundef signext %1, i64 noundef %2) #3 align 2 {
  %4 = alloca ptr, align 8
  %5 = alloca i8, align 1
  %6 = alloca i64, align 8
  store ptr %0, ptr %4, align 8, !tbaa !29
  store i8 %1, ptr %5, align 1, !tbaa !52
  store i64 %2, ptr %6, align 8, !tbaa !4
  %7 = load ptr, ptr %4, align 8
  %8 = load i8, ptr %5, align 1, !tbaa !52
  %9 = load i64, ptr %6, align 8, !tbaa !4
  %10 = call noundef i64 @_ZNKSt7__cxx1112basic_stringIcSt11char_traitsIcESaIcEE5rfindEcm(ptr noundef nonnull align 8 dereferenceable(32) %7, i8 noundef signext %8, i64 noundef %9) #4
  ret i64 %10
}

; Function Attrs: mustprogress nounwind uwtable
define noundef i64 @_ZN7rocksdb21TableFileNameToNumberERKNSt7__cxx1112basic_stringIcSt11char_traitsIcESaIcEEE(ptr noundef nonnull align 8 dereferenceable(32) %0) #3 {
  %2 = alloca ptr, align 8
  %3 = alloca i64, align 8
  %4 = alloca i64, align 8
  %5 = alloca i32, align 4
  store ptr %0, ptr %2, align 8, !tbaa !29
  call void @llvm.lifetime.start.p0(i64 8, ptr %3) #4
  store i64 0, ptr %3, align 8, !tbaa !4
  call void @llvm.lifetime.start.p0(i64 8, ptr %4) #4
  store i64 1, ptr %4, align 8, !tbaa !4
  call void @llvm.lifetime.start.p0(i64 4, ptr %5) #4
  %6 = load ptr, ptr %2, align 8, !tbaa !29
  %7 = call noundef i64 @_ZNKSt7__cxx1112basic_stringIcSt11char_traitsIcESaIcEE12find_last_ofEcm(ptr noundef nonnull align 8 dereferenceable(32) %6, i8 noundef signext 46, i64 noundef -1) #4
  %8 = trunc i64 %7 to i32
  store i32 %8, ptr %5, align 4, !tbaa !51
  br label %9

9:                                                ; preds = %31, %1
  %10 = load i32, ptr %5, align 4, !tbaa !51
  %11 = add nsw i32 %10, -1
  store i32 %11, ptr %5, align 4, !tbaa !51
  %12 = icmp sge i32 %11, 0
  br i1 %12, label %13, label %29

13:                                               ; preds = %9
  %14 = load ptr, ptr %2, align 8, !tbaa !29
  %15 = load i32, ptr %5, align 4, !tbaa !51
  %16 = sext i32 %15 to i64
  %17 = call noundef nonnull align 1 dereferenceable(1) ptr @_ZNKSt7__cxx1112basic_stringIcSt11char_traitsIcESaIcEEixEm(ptr noundef nonnull align 8 dereferenceable(32) %14, i64 noundef %16) #4
  %18 = load i8, ptr %17, align 1, !tbaa !52
  %19 = sext i8 %18 to i32
  %20 = icmp sge i32 %19, 48
  br i1 %20, label %21, label %29

21:                                               ; preds = %13
  %22 = load ptr, ptr %2, align 8, !tbaa !29
  %23 = load i32, ptr %5, align 4, !tbaa !51
  %24 = sext i32 %23 to i64
  %25 = call noundef nonnull align 1 dereferenceable(1) ptr @_ZNKSt7__cxx1112basic_stringIcSt11char_traitsIcESaIcEEixEm(ptr noundef nonnull align 8 dereferenceable(32) %22, i64 noundef %24) #4
  %26 = load i8, ptr %25, align 1, !tbaa !52
  %27 = sext i8 %26 to i32
  %28 = icmp sle i32 %27, 57
  br label %29

29:                                               ; preds = %21, %13, %9
  %30 = phi i1 [ false, %13 ], [ false, %9 ], [ %28, %21 ]
  br i1 %30, label %31, label %46

31:                                               ; preds = %29
  %32 = load ptr, ptr %2, align 8, !tbaa !29
  %33 = load i32, ptr %5, align 4, !tbaa !51
  %34 = sext i32 %33 to i64
  %35 = call noundef nonnull align 1 dereferenceable(1) ptr @_ZNKSt7__cxx1112basic_stringIcSt11char_traitsIcESaIcEEixEm(ptr noundef nonnull align 8 dereferenceable(32) %32, i64 noundef %34) #4
  %36 = load i8, ptr %35, align 1, !tbaa !52
  %37 = sext i8 %36 to i32
  %38 = sub nsw i32 %37, 48
  %39 = sext i32 %38 to i64
  %40 = load i64, ptr %4, align 8, !tbaa !4
  %41 = mul i64 %39, %40
  %42 = load i64, ptr %3, align 8, !tbaa !4
  %43 = add i64 %42, %41
  store i64 %43, ptr %3, align 8, !tbaa !4
  %44 = load i64, ptr %4, align 8, !tbaa !4
  %45 = mul i64 %44, 10
  store i64 %45, ptr %4, align 8, !tbaa !4
  br label %9, !llvm.loop !53

46:                                               ; preds = %29
  %47 = load i64, ptr %3, align 8, !tbaa !4
  call void @llvm.lifetime.end.p0(i64 4, ptr %5) #4
  call void @llvm.lifetime.end.p0(i64 8, ptr %4) #4
  call void @llvm.lifetime.end.p0(i64 8, ptr %3) #4
  ret i64 %47
}