; Function Attrs: mustprogress nounwind uwtable
define noundef i64 @_ZN7rocksdb21TableFileNameToNumberERKNSt7__cxx1112basic_stringIcSt11char_traitsIcESaIcEEE(ptr noundef nonnull align 8 dereferenceable(32) %0) local_unnamed_addr #1 {
  %2 = tail call noundef i64 @_ZNKSt7__cxx1112basic_stringIcSt11char_traitsIcESaIcEE5rfindEcm(ptr noundef nonnull align 8 dereferenceable(32) %0, i8 noundef signext 46, i64 noundef -1) #25
  %3 = trunc i64 %2 to i32
  %4 = icmp sgt i32 %3, 0
  br i1 %4, label %.lr.ph, label %.critedge

.lr.ph:                                           ; preds = %1
  %5 = load ptr, ptr %0, align 8, !tbaa !16
  %6 = and i64 %2, 2147483647
  br label %7

7:                                                ; preds = %.lr.ph, %11
  %indvars.iv = phi i64 [ %6, %.lr.ph ], [ %indvars.iv.next, %11 ]
  %.01115 = phi i64 [ 1, %.lr.ph ], [ %16, %11 ]
  %.01214 = phi i64 [ 0, %.lr.ph ], [ %15, %11 ]
  %indvars.iv.next = add nsw i64 %indvars.iv, -1
  %8 = getelementptr inbounds nuw i8, ptr %5, i64 %indvars.iv.next
  %9 = load i8, ptr %8, align 1, !tbaa !18
  %10 = add i8 %9, -48
  %or.cond = icmp ult i8 %10, 10
  br i1 %or.cond, label %11, label %.critedge

11:                                               ; preds = %7
  %12 = zext nneg i8 %9 to i64
  %13 = add nsw i64 %12, -48
  %14 = mul i64 %13, %.01115
  %15 = add i64 %14, %.01214
  %16 = mul i64 %.01115, 10
  %17 = icmp samesign ugt i64 %indvars.iv, 1
  br i1 %17, label %7, label %.critedge, !llvm.loop !59

.critedge:                                        ; preds = %11, %7, %1
  %.012.lcssa = phi i64 [ 0, %1 ], [ %.01214, %7 ], [ %15, %11 ]
  ret i64 %.012.lcssa
}